target datalayout = "e-m:e-p270:32:32-p271:32:32-p272:64:64-i64:64-i128:128-f80:128-n8:16:32:64-S128"
target triple = "x86_64-pc-linux-gnu"

%struct._zval_struct = type { %union._zend_value, %union.anon.9, %union.anon.12 }
%union._zend_value = type { i64 }
%union.anon.9 = type { i32 }
%union.anon.12 = type { i32 }
%struct._zend_class_entry = type { i8, ptr, %union.anon, i32, i32, i32, i32, ptr, ptr, ptr, %struct._zend_array, %struct._zend_array, %struct._zend_array, ptr, ptr, ptr, ptr, ptr, ptr, ptr, ptr, ptr, ptr, ptr, ptr, ptr, ptr, ptr, ptr, ptr, ptr, ptr, %union.anon.3, ptr, ptr, ptr, ptr, i32, i32, %union.anon.4, ptr, ptr, ptr, ptr, i32, ptr, ptr, %union.anon.5 }
%union.anon = type { ptr }
%struct._zend_array = type { %struct._zend_refcounted_h, %union.anon.1, i32, %union.anon.2, i32, i32, i32, i32, i64, ptr }
%struct._zend_refcounted_h = type { i32, %union.anon.0 }
%union.anon.0 = type { i32 }
%union.anon.1 = type { i32 }
%union.anon.2 = type { ptr }
%union.anon.3 = type { ptr }
%union.anon.4 = type { ptr }
%union.anon.5 = type { %struct.anon.6 }
%struct.anon.6 = type { ptr, i32, i32 }
%struct._zend_string = type { %struct._zend_refcounted_h, i64, i64, [1 x i8] }

; Function Attrs: nounwind uwtable
define hidden void @spl_add_class_name(ptr noundef %0, ptr noundef %1, i32 noundef %2, i32 noundef %3) #0 {
  %5 = alloca ptr, align 8
  %6 = alloca i32, align 4
  %7 = alloca ptr, align 8
  %8 = alloca ptr, align 8
  %9 = alloca i32, align 4
  %10 = alloca i32, align 4
  %11 = alloca ptr, align 8
  %12 = alloca %struct._zval_struct, align 8
  %13 = alloca ptr, align 8
  %14 = alloca ptr, align 8
  store ptr %0, ptr %7, align 8
  store ptr %1, ptr %8, align 8
  store i32 %2, ptr %9, align 4
  store i32 %3, ptr %10, align 4
  %15 = load i32, ptr %9, align 4
  %16 = icmp ne i32 %15, 0
  br i1 %16, label %17, label %37

17:                                               ; preds = %4
  %18 = load i32, ptr %9, align 4
  %19 = icmp sgt i32 %18, 0
  br i1 %19, label %20, label %27

20:                                               ; preds = %17
  %21 = load ptr, ptr %8, align 8
  %22 = getelementptr inbounds %struct._zend_class_entry, ptr %21, i32 0, i32 4
  %23 = load i32, ptr %22, align 4
  %24 = load i32, ptr %10, align 4
  %25 = and i32 %23, %24
  %26 = icmp ne i32 %25, 0
  br i1 %26, label %37, label %27

27:                                               ; preds = %20, %17
  %28 = load i32, ptr %9, align 4
  %29 = icmp slt i32 %28, 0
  br i1 %29, label %30, label %83

30:                                               ; preds = %27
  %31 = load ptr, ptr %8, align 8
  %32 = getelementptr inbounds %struct._zend_class_entry, ptr %31, i32 0, i32 4
  %33 = load i32, ptr %32, align 4
  %34 = load i32, ptr %10, align 4
  %35 = and i32 %33, %34
  %36 = icmp ne i32 %35, 0
  br i1 %36, label %83, label %37

37:                                               ; preds = %30, %20, %4
  %38 = load ptr, ptr %7, align 8
  %39 = getelementptr inbounds %struct._zval_struct, ptr %38, i32 0, i32 0
  %40 = load ptr, ptr %39, align 8
  %41 = load ptr, ptr %8, align 8
  %42 = getelementptr inbounds %struct._zend_class_entry, ptr %41, i32 0, i32 1
  %43 = load ptr, ptr %42, align 8
  %44 = call ptr @zend_hash_find(ptr noundef %40, ptr noundef %43)
  store ptr %44, ptr %11, align 8
  %45 = icmp eq ptr %44, null
  br i1 %45, label %46, label %82

46:                                               ; preds = %37
  br label %47

47:                                               ; preds = %46
  store ptr %12, ptr %13, align 8
  %48 = load ptr, ptr %8, align 8
  %49 = getelementptr inbounds %struct._zend_class_entry, ptr %48, i32 0, i32 1
  %50 = load ptr, ptr %49, align 8
  store ptr %50, ptr %14, align 8
  %51 = load ptr, ptr %14, align 8
  %52 = load ptr, ptr %13, align 8
  %53 = getelementptr inbounds %struct._zval_struct, ptr %52, i32 0, i32 0
  store ptr %51, ptr %53, align 8
  %54 = load ptr, ptr %14, align 8
  %55 = getelementptr inbounds %struct._zend_string, ptr %54, i32 0, i32 0
  %56 = getelementptr inbounds %struct._zend_refcounted_h, ptr %55, i32 0, i32 1
  %57 = load i32, ptr %56, align 4
  store i32 %57, ptr %6, align 4
  %58 = load i32, ptr %6, align 4
  %59 = and i32 %58, 1008
  %60 = and i32 %59, 64
  %61 = icmp ne i32 %60, 0
  br i1 %61, label %62, label %65

62:                                               ; preds = %47
  %63 = load ptr, ptr %13, align 8
  %64 = getelementptr inbounds %struct._zval_struct, ptr %63, i32 0, i32 1
  store i32 6, ptr %64, align 8
  br label %73

65:                                               ; preds = %47
  %66 = load ptr, ptr %14, align 8
  %67 = getelementptr inbounds %struct._zend_string, ptr %66, i32 0, i32 0
  store ptr %67, ptr %5, align 8
  %68 = load ptr, ptr %5, align 8
  %69 = load i32, ptr %68, align 4
  %70 = add i32 %69, 1
  store i32 %70, ptr %68, align 4
  %71 = load ptr, ptr %13, align 8
  %72 = getelementptr inbounds %struct._zval_struct, ptr %71, i32 0, i32 1
  store i32 262, ptr %72, align 8
  br label %73

73:                                               ; preds = %65, %62
  br label %74

74:                                               ; preds = %73
  %75 = load ptr, ptr %7, align 8
  %76 = getelementptr inbounds %struct._zval_struct, ptr %75, i32 0, i32 0
  %77 = load ptr, ptr %76, align 8
  %78 = load ptr, ptr %8, align 8
  %79 = getelementptr inbounds %struct._zend_class_entry, ptr %78, i32 0, i32 1
  %80 = load ptr, ptr %79, align 8
  %81 = call ptr @zend_hash_add(ptr noundef %77, ptr noundef %80, ptr noundef %12)
  br label %82

82:                                               ; preds = %74, %37
  br label %83

83:                                               ; preds = %82, %30, %27
  ret void
}

; Function Attrs: nounwind uwtable
define hidden void @spl_add_interfaces(ptr noundef %0, ptr noundef %1, i32 noundef %2, i32 noundef %3) #0 {
  %5 = alloca ptr, align 8
  %6 = alloca ptr, align 8
  %7 = alloca i32, align 4
  %8 = alloca i32, align 4
  %9 = alloca i32, align 4
  store ptr %0, ptr %5, align 8
  store ptr %1, ptr %6, align 8
  store i32 %2, ptr %7, align 4
  store i32 %3, ptr %8, align 4
  %10 = load ptr, ptr %6, align 8
  %11 = getelementptr inbounds %struct._zend_class_entry, ptr %10, i32 0, i32 37
  %12 = load i32, ptr %11, align 8
  %13 = icmp ne i32 %12, 0
  br i1 %13, label %14, label %41

14:                                               ; preds = %4
  %15 = load ptr, ptr %6, align 8
  %16 = getelementptr inbounds %struct._zend_class_entry, ptr %15, i32 0, i32 4
  %17 = load i32, ptr %16, align 4
  %18 = and i32 %17, 8
  %19 = icmp ne i32 %18, 0
  call void @llvm.assume(i1 %19)
  store i32 0, ptr %9, align 4
  br label %20

20:                                               ; preds = %37, %14
  %21 = load i32, ptr %9, align 4
  %22 = load ptr, ptr %6, align 8
  %23 = getelementptr inbounds %struct._zend_class_entry, ptr %22, i32 0, i32 37
  %24 = load i32, ptr %23, align 8
  %25 = icmp ult i32 %21, %24
  br i1 %25, label %26, label %40

26:                                               ; preds = %20
  %27 = load ptr, ptr %5, align 8
  %28 = load ptr, ptr %6, align 8
  %29 = getelementptr inbounds %struct._zend_class_entry, ptr %28, i32 0, i32 39
  %30 = load ptr, ptr %29, align 8
  %31 = load i32, ptr %9, align 4
  %32 = zext i32 %31 to i64
  %33 = getelementptr inbounds ptr, ptr %30, i64 %32
  %34 = load ptr, ptr %33, align 8
  %35 = load i32, ptr %7, align 4
  %36 = load i32, ptr %8, align 4
  call void @spl_add_class_name(ptr noundef %27, ptr noundef %34, i32 noundef %35, i32 noundef %36)
  br label %37

37:                                               ; preds = %26
  %38 = load i32, ptr %9, align 4
  %39 = add i32 %38, 1
  store i32 %39, ptr %9, align 4
  br label %20

40:                                               ; preds = %20
  br label %41

41:                                               ; preds = %40, %4
  ret void
}