; Function Attrs: nounwind uwtable
define hidden void @spl_add_interfaces(ptr nocapture noundef readonly %0, ptr nocapture noundef readonly %1, i32 noundef %2, i32 noundef %3) local_unnamed_addr #0 {
  %5 = alloca %struct._zval_struct, align 8
  %6 = getelementptr inbounds i8, ptr %1, i64 424
  %7 = load i32, ptr %6, align 8
  %.not = icmp eq i32 %7, 0
  br i1 %.not, label %.loopexit, label %.lr.ph

.lr.ph:                                           ; preds = %4
  %8 = getelementptr inbounds i8, ptr %1, i64 28
  %9 = load i32, ptr %8, align 4
  %10 = and i32 %9, 8
  %11 = icmp ne i32 %10, 0
  tail call void @llvm.assume(i1 %11)
  %12 = getelementptr inbounds i8, ptr %1, i64 432
  %.not.i = icmp eq i32 %2, 0
  %13 = getelementptr inbounds i8, ptr %5, i64 8
  br i1 %.not.i, label %.lr.ph.split.us, label %.lr.ph.split

.lr.ph.split.us:                                  ; preds = %.lr.ph, %spl_add_class_name.exit.us
  %indvars.iv22 = phi i64 [ %indvars.iv.next23, %spl_add_class_name.exit.us ], [ 0, %.lr.ph ]
  %14 = load ptr, ptr %12, align 8
  %15 = getelementptr inbounds ptr, ptr %14, i64 %indvars.iv22
  %16 = load ptr, ptr %15, align 8
  call void @llvm.lifetime.start.p0(i64 16, ptr nonnull %5)
  %17 = load ptr, ptr %0, align 8
  %18 = getelementptr inbounds i8, ptr %16, i64 8
  %19 = load ptr, ptr %18, align 8
  %20 = call ptr @zend_hash_find(ptr noundef %17, ptr noundef %19) #4
  %21 = icmp eq ptr %20, null
  br i1 %21, label %22, label %spl_add_class_name.exit.us

22:                                               ; preds = %.lr.ph.split.us
  %23 = load ptr, ptr %18, align 8
  store ptr %23, ptr %5, align 8
  %24 = getelementptr inbounds i8, ptr %23, i64 4
  %25 = load i32, ptr %24, align 4
  %26 = and i32 %25, 64
  %.not21.i.us = icmp eq i32 %26, 0
  br i1 %.not21.i.us, label %27, label %30

27:                                               ; preds = %22
  %28 = load i32, ptr %23, align 4
  %29 = add i32 %28, 1
  store i32 %29, ptr %23, align 4
  %.pre.i.us = load ptr, ptr %18, align 8
  br label %30

30:                                               ; preds = %27, %22
  %31 = phi ptr [ %.pre.i.us, %27 ], [ %23, %22 ]
  %.sink.i.us = phi i32 [ 262, %27 ], [ 6, %22 ]
  store i32 %.sink.i.us, ptr %13, align 8
  %32 = load ptr, ptr %0, align 8
  %33 = call ptr @zend_hash_add(ptr noundef %32, ptr noundef %31, ptr noundef nonnull %5) #4
  br label %spl_add_class_name.exit.us

spl_add_class_name.exit.us:                       ; preds = %30, %.lr.ph.split.us
  call void @llvm.lifetime.end.p0(i64 16, ptr nonnull %5)
  %indvars.iv.next23 = add nuw nsw i64 %indvars.iv22, 1
  %34 = load i32, ptr %6, align 8
  %35 = zext i32 %34 to i64
  %36 = icmp ult i64 %indvars.iv.next23, %35
  br i1 %36, label %.lr.ph.split.us, label %.loopexit

.lr.ph.split:                                     ; preds = %.lr.ph
  %37 = icmp sgt i32 %2, 0
  br i1 %37, label %.lr.ph.split.split.us, label %.lr.ph.split.split

.lr.ph.split.split.us:                            ; preds = %.lr.ph.split, %spl_add_class_name.exit.us14
  %indvars.iv19 = phi i64 [ %indvars.iv.next20, %spl_add_class_name.exit.us14 ], [ 0, %.lr.ph.split ]
  %38 = load ptr, ptr %12, align 8
  %39 = getelementptr inbounds ptr, ptr %38, i64 %indvars.iv19
  %40 = load ptr, ptr %39, align 8
  call void @llvm.lifetime.start.p0(i64 16, ptr nonnull %5)
  %41 = getelementptr inbounds i8, ptr %40, i64 28
  %42 = load i32, ptr %41, align 4
  %43 = and i32 %42, %3
  %.not19.i.us = icmp eq i32 %43, 0
  br i1 %.not19.i.us, label %spl_add_class_name.exit.us14, label %44

44:                                               ; preds = %.lr.ph.split.split.us
  %45 = load ptr, ptr %0, align 8
  %46 = getelementptr inbounds i8, ptr %40, i64 8
  %47 = load ptr, ptr %46, align 8
  %48 = call ptr @zend_hash_find(ptr noundef %45, ptr noundef %47) #4
  %49 = icmp eq ptr %48, null
  br i1 %49, label %50, label %spl_add_class_name.exit.us14

50:                                               ; preds = %44
  %51 = load ptr, ptr %46, align 8
  store ptr %51, ptr %5, align 8
  %52 = getelementptr inbounds i8, ptr %51, i64 4
  %53 = load i32, ptr %52, align 4
  %54 = and i32 %53, 64
  %.not21.i.us11 = icmp eq i32 %54, 0
  br i1 %.not21.i.us11, label %55, label %58

55:                                               ; preds = %50
  %56 = load i32, ptr %51, align 4
  %57 = add i32 %56, 1
  store i32 %57, ptr %51, align 4
  %.pre.i.us12 = load ptr, ptr %46, align 8
  br label %58

58:                                               ; preds = %55, %50
  %59 = phi ptr [ %.pre.i.us12, %55 ], [ %51, %50 ]
  %.sink.i.us13 = phi i32 [ 262, %55 ], [ 6, %50 ]
  store i32 %.sink.i.us13, ptr %13, align 8
  %60 = load ptr, ptr %0, align 8
  %61 = call ptr @zend_hash_add(ptr noundef %60, ptr noundef %59, ptr noundef nonnull %5) #4
  br label %spl_add_class_name.exit.us14

spl_add_class_name.exit.us14:                     ; preds = %58, %44, %.lr.ph.split.split.us
  call void @llvm.lifetime.end.p0(i64 16, ptr nonnull %5)
  %indvars.iv.next20 = add nuw nsw i64 %indvars.iv19, 1
  %62 = load i32, ptr %6, align 8
  %63 = zext i32 %62 to i64
  %64 = icmp ult i64 %indvars.iv.next20, %63
  br i1 %64, label %.lr.ph.split.split.us, label %.loopexit

.lr.ph.split.split:                               ; preds = %.lr.ph.split, %spl_add_class_name.exit
  %indvars.iv = phi i64 [ %indvars.iv.next, %spl_add_class_name.exit ], [ 0, %.lr.ph.split ]
  %65 = load ptr, ptr %12, align 8
  %66 = getelementptr inbounds ptr, ptr %65, i64 %indvars.iv
  %67 = load ptr, ptr %66, align 8
  call void @llvm.lifetime.start.p0(i64 16, ptr nonnull %5)
  %68 = getelementptr inbounds i8, ptr %67, i64 28
  %69 = load i32, ptr %68, align 4
  %70 = and i32 %69, %3
  %.not19.i = icmp eq i32 %70, 0
  br i1 %.not19.i, label %71, label %spl_add_class_name.exit

71:                                               ; preds = %.lr.ph.split.split
  %72 = load ptr, ptr %0, align 8
  %73 = getelementptr inbounds i8, ptr %67, i64 8
  %74 = load ptr, ptr %73, align 8
  %75 = call ptr @zend_hash_find(ptr noundef %72, ptr noundef %74) #4
  %76 = icmp eq ptr %75, null
  br i1 %76, label %77, label %spl_add_class_name.exit

77:                                               ; preds = %71
  %78 = load ptr, ptr %73, align 8
  store ptr %78, ptr %5, align 8
  %79 = getelementptr inbounds i8, ptr %78, i64 4
  %80 = load i32, ptr %79, align 4
  %81 = and i32 %80, 64
  %.not21.i = icmp eq i32 %81, 0
  br i1 %.not21.i, label %82, label %85

82:                                               ; preds = %77
  %83 = load i32, ptr %78, align 4
  %84 = add i32 %83, 1
  store i32 %84, ptr %78, align 4
  %.pre.i = load ptr, ptr %73, align 8
  br label %85

85:                                               ; preds = %82, %77
  %86 = phi ptr [ %.pre.i, %82 ], [ %78, %77 ]
  %.sink.i = phi i32 [ 262, %82 ], [ 6, %77 ]
  store i32 %.sink.i, ptr %13, align 8
  %87 = load ptr, ptr %0, align 8
  %88 = call ptr @zend_hash_add(ptr noundef %87, ptr noundef %86, ptr noundef nonnull %5) #4
  br label %spl_add_class_name.exit

spl_add_class_name.exit:                          ; preds = %.lr.ph.split.split, %71, %85
  call void @llvm.lifetime.end.p0(i64 16, ptr nonnull %5)
  %indvars.iv.next = add nuw nsw i64 %indvars.iv, 1
  %89 = load i32, ptr %6, align 8
  %90 = zext i32 %89 to i64
  %91 = icmp ult i64 %indvars.iv.next, %90
  br i1 %91, label %.lr.ph.split.split, label %.loopexit

.loopexit:                                        ; preds = %spl_add_class_name.exit, %spl_add_class_name.exit.us14, %spl_add_class_name.exit.us, %4
  ret void
}